; ModuleID = '55/614.c'
source_filename = "55/614.c"
target datalayout = "e-m:e-p270:32:32-p271:32:32-p272:64:64-i64:64-f80:128-n8:16:32:64-S128"
target triple = "x86_64-pc-linux-gnu"

@.str = private unnamed_addr constant [7 x i8] c"%d%s%d\00", align 1
@.str.1 = private unnamed_addr constant [3 x i8] c"%c\00", align 1
@.str.2 = private unnamed_addr constant [2 x i8] c"\0A\00", align 1
@.str.3 = private unnamed_addr constant [3 x i8] c"0\0A\00", align 1

; Function Attrs: noinline nounwind uwtable
define dso_local i64 @change1(i8* %0, i32 %1) #0 {
  %3 = alloca i8*, align 8
  %4 = alloca i32, align 4
  %5 = alloca i32, align 4
  %6 = alloca i32, align 4
  %7 = alloca i32, align 4
  %8 = alloca i32, align 4
  store i8* %0, i8** %3, align 8
  store i32 %1, i32* %4, align 4
  store i32 0, i32* %5, align 4
  %9 = load i8*, i8** %3, align 8
  %10 = call i64 @strlen(i8* %9) #4
  %11 = trunc i64 %10 to i32
  store i32 %11, i32* %7, align 4
  store i32 0, i32* %8, align 4
  br label %12

12:                                               ; preds = %96, %2
  %13 = load i32, i32* %8, align 4
  %14 = load i32, i32* %7, align 4
  %15 = icmp slt i32 %13, %14
  br i1 %15, label %16, label %99

16:                                               ; preds = %12
  %17 = load i8*, i8** %3, align 8
  %18 = load i32, i32* %8, align 4
  %19 = sext i32 %18 to i64
  %20 = getelementptr inbounds i8, i8* %17, i64 %19
  %21 = load i8, i8* %20, align 1
  %22 = sext i8 %21 to i32
  %23 = icmp sge i32 %22, 48
  br i1 %23, label %24, label %40

24:                                               ; preds = %16
  %25 = load i8*, i8** %3, align 8
  %26 = load i32, i32* %8, align 4
  %27 = sext i32 %26 to i64
  %28 = getelementptr inbounds i8, i8* %25, i64 %27
  %29 = load i8, i8* %28, align 1
  %30 = sext i8 %29 to i32
  %31 = icmp sle i32 %30, 57
  br i1 %31, label %32, label %40

32:                                               ; preds = %24
  %33 = load i8*, i8** %3, align 8
  %34 = load i32, i32* %8, align 4
  %35 = sext i32 %34 to i64
  %36 = getelementptr inbounds i8, i8* %33, i64 %35
  %37 = load i8, i8* %36, align 1
  %38 = sext i8 %37 to i32
  %39 = sub nsw i32 %38, 48
  store i32 %39, i32* %6, align 4
  br label %40

40:                                               ; preds = %32, %24, %16
  %41 = load i8*, i8** %3, align 8
  %42 = load i32, i32* %8, align 4
  %43 = sext i32 %42 to i64
  %44 = getelementptr inbounds i8, i8* %41, i64 %43
  %45 = load i8, i8* %44, align 1
  %46 = sext i8 %45 to i32
  %47 = icmp sge i32 %46, 97
  br i1 %47, label %48, label %65

48:                                               ; preds = %40
  %49 = load i8*, i8** %3, align 8
  %50 = load i32, i32* %8, align 4
  %51 = sext i32 %50 to i64
  %52 = getelementptr inbounds i8, i8* %49, i64 %51
  %53 = load i8, i8* %52, align 1
  %54 = sext i8 %53 to i32
  %55 = icmp sle i32 %54, 122
  br i1 %55, label %56, label %65

56:                                               ; preds = %48
  %57 = load i8*, i8** %3, align 8
  %58 = load i32, i32* %8, align 4
  %59 = sext i32 %58 to i64
  %60 = getelementptr inbounds i8, i8* %57, i64 %59
  %61 = load i8, i8* %60, align 1
  %62 = sext i8 %61 to i32
  %63 = sub nsw i32 %62, 97
  %64 = add nsw i32 %63, 10
  store i32 %64, i32* %6, align 4
  br label %65

65:                                               ; preds = %56, %48, %40
  %66 = load i8*, i8** %3, align 8
  %67 = load i32, i32* %8, align 4
  %68 = sext i32 %67 to i64
  %69 = getelementptr inbounds i8, i8* %66, i64 %68
  %70 = load i8, i8* %69, align 1
  %71 = sext i8 %70 to i32
  %72 = icmp sge i32 %71, 65
  br i1 %72, label %73, label %90

73:                                               ; preds = %65
  %74 = load i8*, i8** %3, align 8
  %75 = load i32, i32* %8, align 4
  %76 = sext i32 %75 to i64
  %77 = getelementptr inbounds i8, i8* %74, i64 %76
  %78 = load i8, i8* %77, align 1
  %79 = sext i8 %78 to i32
  %80 = icmp sle i32 %79, 90
  br i1 %80, label %81, label %90

81:                                               ; preds = %73
  %82 = load i8*, i8** %3, align 8
  %83 = load i32, i32* %8, align 4
  %84 = sext i32 %83 to i64
  %85 = getelementptr inbounds i8, i8* %82, i64 %84
  %86 = load i8, i8* %85, align 1
  %87 = sext i8 %86 to i32
  %88 = sub nsw i32 %87, 65
  %89 = add nsw i32 %88, 10
  store i32 %89, i32* %6, align 4
  br label %90

90:                                               ; preds = %81, %73, %65
  %91 = load i32, i32* %5, align 4
  %92 = load i32, i32* %4, align 4
  %93 = mul nsw i32 %91, %92
  %94 = load i32, i32* %6, align 4
  %95 = add nsw i32 %93, %94
  store i32 %95, i32* %5, align 4
  br label %96

96:                                               ; preds = %90
  %97 = load i32, i32* %8, align 4
  %98 = add nsw i32 %97, 1
  store i32 %98, i32* %8, align 4
  br label %12

99:                                               ; preds = %12
  %100 = load i32, i32* %5, align 4
  %101 = sext i32 %100 to i64
  ret i64 %101
}

; Function Attrs: nounwind readonly
declare dso_local i64 @strlen(i8*) #1

; Function Attrs: noinline nounwind uwtable
define dso_local void @change2(i64 %0, i32 %1, i8* %2) #0 {
  %4 = alloca i64, align 8
  %5 = alloca i32, align 4
  %6 = alloca i8*, align 8
  %7 = alloca i32, align 4
  %8 = alloca i32, align 4
  %9 = alloca i32, align 4
  %10 = alloca i32, align 4
  store i64 %0, i64* %4, align 8
  store i32 %1, i32* %5, align 4
  store i8* %2, i8** %6, align 8
  store i32 0, i32* %7, align 4
  br label %11

11:                                               ; preds = %39, %3
  %12 = load i64, i64* %4, align 8
  %13 = icmp sgt i64 %12, 0
  br i1 %13, label %14, label %46

14:                                               ; preds = %11
  %15 = load i64, i64* %4, align 8
  %16 = load i32, i32* %5, align 4
  %17 = sext i32 %16 to i64
  %18 = srem i64 %15, %17
  %19 = trunc i64 %18 to i32
  store i32 %19, i32* %10, align 4
  %20 = load i32, i32* %10, align 4
  %21 = icmp sge i32 %20, 10
  br i1 %21, label %22, label %31

22:                                               ; preds = %14
  %23 = load i32, i32* %10, align 4
  %24 = sub nsw i32 %23, 10
  %25 = add nsw i32 %24, 65
  %26 = trunc i32 %25 to i8
  %27 = load i8*, i8** %6, align 8
  %28 = load i32, i32* %7, align 4
  %29 = sext i32 %28 to i64
  %30 = getelementptr inbounds i8, i8* %27, i64 %29
  store i8 %26, i8* %30, align 1
  br label %39

31:                                               ; preds = %14
  %32 = load i32, i32* %10, align 4
  %33 = add nsw i32 %32, 48
  %34 = trunc i32 %33 to i8
  %35 = load i8*, i8** %6, align 8
  %36 = load i32, i32* %7, align 4
  %37 = sext i32 %36 to i64
  %38 = getelementptr inbounds i8, i8* %35, i64 %37
  store i8 %34, i8* %38, align 1
  br label %39

39:                                               ; preds = %31, %22
  %40 = load i32, i32* %7, align 4
  %41 = add nsw i32 %40, 1
  store i32 %41, i32* %7, align 4
  %42 = load i64, i64* %4, align 8
  %43 = load i32, i32* %5, align 4
  %44 = sext i32 %43 to i64
  %45 = sdiv i64 %42, %44
  store i64 %45, i64* %4, align 8
  br label %11

46:                                               ; preds = %11
  store i32 0, i32* %8, align 4
  br label %47

47:                                               ; preds = %81, %46
  %48 = load i32, i32* %8, align 4
  %49 = load i32, i32* %7, align 4
  %50 = sdiv i32 %49, 2
  %51 = sub nsw i32 %50, 1
  %52 = icmp sle i32 %48, %51
  br i1 %52, label %53, label %84

53:                                               ; preds = %47
  %54 = load i8*, i8** %6, align 8
  %55 = load i32, i32* %8, align 4
  %56 = sext i32 %55 to i64
  %57 = getelementptr inbounds i8, i8* %54, i64 %56
  %58 = load i8, i8* %57, align 1
  %59 = sext i8 %58 to i32
  store i32 %59, i32* %9, align 4
  %60 = load i8*, i8** %6, align 8
  %61 = load i32, i32* %7, align 4
  %62 = sub nsw i32 %61, 1
  %63 = load i32, i32* %8, align 4
  %64 = sub nsw i32 %62, %63
  %65 = sext i32 %64 to i64
  %66 = getelementptr inbounds i8, i8* %60, i64 %65
  %67 = load i8, i8* %66, align 1
  %68 = load i8*, i8** %6, align 8
  %69 = load i32, i32* %8, align 4
  %70 = sext i32 %69 to i64
  %71 = getelementptr inbounds i8, i8* %68, i64 %70
  store i8 %67, i8* %71, align 1
  %72 = load i32, i32* %9, align 4
  %73 = trunc i32 %72 to i8
  %74 = load i8*, i8** %6, align 8
  %75 = load i32, i32* %7, align 4
  %76 = sub nsw i32 %75, 1
  %77 = load i32, i32* %8, align 4
  %78 = sub nsw i32 %76, %77
  %79 = sext i32 %78 to i64
  %80 = getelementptr inbounds i8, i8* %74, i64 %79
  store i8 %73, i8* %80, align 1
  br label %81

81:                                               ; preds = %53
  %82 = load i32, i32* %8, align 4
  %83 = add nsw i32 %82, 1
  store i32 %83, i32* %8, align 4
  br label %47

84:                                               ; preds = %47
  ret void
}

; Function Attrs: noinline nounwind uwtable
define dso_local void @main() #0 {
  %1 = alloca [50 x i8], align 16
  %2 = alloca [50 x i8], align 16
  %3 = alloca i32, align 4
  %4 = alloca i32, align 4
  %5 = alloca i32, align 4
  %6 = alloca i32, align 4
  %7 = alloca i64, align 8
  %8 = bitcast [50 x i8]* %1 to i8*
  call void @llvm.memset.p0i8.i64(i8* align 16 %8, i8 0, i64 50, i1 false)
  %9 = bitcast [50 x i8]* %2 to i8*
  call void @llvm.memset.p0i8.i64(i8* align 16 %9, i8 0, i64 50, i1 false)
  %10 = getelementptr inbounds [50 x i8], [50 x i8]* %1, i64 0, i64 0
  %11 = call i32 (i8*, ...) @__isoc99_scanf(i8* getelementptr inbounds ([7 x i8], [7 x i8]* @.str, i64 0, i64 0), i32* %3, i8* %10, i32* %4)
  %12 = getelementptr inbounds [50 x i8], [50 x i8]* %1, i64 0, i64 0
  %13 = load i32, i32* %3, align 4
  %14 = call i64 @change1(i8* %12, i32 %13)
  store i64 %14, i64* %7, align 8
  %15 = load i64, i64* %7, align 8
  %16 = load i32, i32* %4, align 4
  %17 = getelementptr inbounds [50 x i8], [50 x i8]* %2, i64 0, i64 0
  call void @change2(i64 %15, i32 %16, i8* %17)
  %18 = getelementptr inbounds [50 x i8], [50 x i8]* %2, i64 0, i64 0
  %19 = call i64 @strlen(i8* %18) #4
  %20 = trunc i64 %19 to i32
  store i32 %20, i32* %5, align 4
  %21 = load i32, i32* %5, align 4
  %22 = icmp sgt i32 %21, 0
  br i1 %22, label %23, label %40

23:                                               ; preds = %0
  store i32 0, i32* %6, align 4
  br label %24

24:                                               ; preds = %35, %23
  %25 = load i32, i32* %6, align 4
  %26 = load i32, i32* %5, align 4
  %27 = icmp slt i32 %25, %26
  br i1 %27, label %28, label %38

28:                                               ; preds = %24
  %29 = load i32, i32* %6, align 4
  %30 = sext i32 %29 to i64
  %31 = getelementptr inbounds [50 x i8], [50 x i8]* %2, i64 0, i64 %30
  %32 = load i8, i8* %31, align 1
  %33 = sext i8 %32 to i32
  %34 = call i32 (i8*, ...) @printf(i8* getelementptr inbounds ([3 x i8], [3 x i8]* @.str.1, i64 0, i64 0), i32 %33)
  br label %35

35:                                               ; preds = %28
  %36 = load i32, i32* %6, align 4
  %37 = add nsw i32 %36, 1
  store i32 %37, i32* %6, align 4
  br label %24

38:                                               ; preds = %24
  %39 = call i32 (i8*, ...) @printf(i8* getelementptr inbounds ([2 x i8], [2 x i8]* @.str.2, i64 0, i64 0))
  br label %40

40:                                               ; preds = %38, %0
  %41 = load i32, i32* %5, align 4
  %42 = icmp eq i32 %41, 0
  br i1 %42, label %43, label %45

43:                                               ; preds = %40
  %44 = call i32 (i8*, ...) @printf(i8* getelementptr inbounds ([3 x i8], [3 x i8]* @.str.3, i64 0, i64 0))
  br label %45

45:                                               ; preds = %43, %40
  ret void
}

; Function Attrs: argmemonly nounwind willreturn
declare void @llvm.memset.p0i8.i64(i8* nocapture writeonly, i8, i64, i1 immarg) #2

declare dso_local i32 @__isoc99_scanf(i8*, ...) #3

declare dso_local i32 @printf(i8*, ...) #3


!llvm.module.flags = !{!0}
!llvm.ident = !{!1}

!0 = !{i32 1, !"wchar_size", i32 4}
!1 = !{!"clang version 10.0.0-4ubuntu1 "}
